target datalayout = "e-m:e-p270:32:32-p271:32:32-p272:64:64-i64:64-i128:128-f80:128-n8:16:32:64-S128"
target triple = "x86_64-pc-linux-gnu"

%struct.H5F_t = type { ptr, ptr, ptr, ptr, i32, ptr, i8, i8, ptr, i32 }
%struct.H5F_shared_t = type { ptr, ptr, ptr, i8, i32, i32, %struct.H5F_mtab_t, ptr, i8, i8, i64, i32, i32, i64, i64, ptr, ptr, %struct.H5AC_cache_config_t, %struct.H5AC_cache_image_config_t, i8, i8, ptr, i64, i32, i8, i64, i64, double, i64, i64, i64, i32, i32, i32, i8, i32, ptr, ptr, ptr, ptr, i8, i8, i8, i64, i64, ptr, ptr, i32, i64, i8, i32, i8, i64, i8, [13 x i32], [13 x i64], [13 x ptr], i8, i64, i64, [7 x i32], [7 x i32], %struct.H5F_blk_aggr_t, %struct.H5F_blk_aggr_t, i64, i64, %struct.H5F_meta_accum_t, i32, i32, [30 x ptr], %struct.H5F_object_flush_t, i8, ptr }
%struct.H5F_mtab_t = type { i32, i32, ptr }
%struct.H5AC_cache_config_t = type { i32, i8, i8, i8, [1025 x i8], i8, i8, i64, double, i64, i64, i64, i32, double, double, i8, i64, i32, double, double, i32, double, double, i8, i64, i32, i8, double, i64, i32 }
%struct.H5AC_cache_image_config_t = type { i32, i8, i8, i32 }
%struct.H5F_blk_aggr_t = type { i64, i64, i64, i64, i64 }
%struct.H5F_meta_accum_t = type { ptr, i64, i64, i64, i64, i64, i8 }
%struct.H5F_object_flush_t = type { ptr, ptr }

@.str.1 = private unnamed_addr constant [97 x i8] c"generated/home/dtcxzyw/WorkSpace/Projects/compilers/llvm-opt-benchmark/bench/hdf5/hdf5/src/H5C.c\00", align 1
@H5E_CACHE_g = external global i64, align 8
@H5E_SYSTEM_g = external global i64, align 8
@.str.6 = private unnamed_addr constant [25 x i8] c"set slist enabled failed\00", align 1
@H5E_CANTFLUSH_g = external global i64, align 8
@__func__.H5C_evict = private unnamed_addr constant [10 x i8] c"H5C_evict\00", align 1
@.str.10 = private unnamed_addr constant [37 x i8] c"unable to evict entries in the cache\00", align 1
@.str.11 = private unnamed_addr constant [26 x i8] c"set slist disabled failed\00", align 1

; Function Attrs: nounwind uwtable
define i32 @H5C_evict(ptr noundef %0) #0 {
  %2 = alloca ptr, align 8
  %3 = alloca i32, align 4
  %4 = alloca i8, align 1
  store ptr %0, ptr %2, align 8
  store i32 0, ptr %3, align 4
  store i8 0, ptr %4, align 1
  %5 = load ptr, ptr %2, align 8
  %6 = getelementptr inbounds %struct.H5F_t, ptr %5, i32 0, i32 2
  %7 = load ptr, ptr %6, align 8
  %8 = getelementptr inbounds %struct.H5F_shared_t, ptr %7, i32 0, i32 16
  %9 = load ptr, ptr %8, align 8
  %10 = call i32 @H5C_set_slist_enabled(ptr noundef %9, i1 noundef zeroext true, i1 noundef zeroext true)
  %11 = icmp slt i32 %10, 0
  br i1 %11, label %12, label %27

12:                                               ; preds = %1
  br label %13

13:                                               ; preds = %12
  br label %14

14:                                               ; preds = %13
  br label %15

15:                                               ; preds = %14
  %16 = load i64, ptr @H5E_CACHE_g, align 8
  %17 = load i64, ptr @H5E_SYSTEM_g, align 8
  %18 = call i32 (ptr, ptr, i32, i64, i64, ptr, ...) @H5E_printf_stack(ptr noundef @.str.1, ptr noundef @__func__.H5C_evict, i32 noundef 572, i64 noundef %16, i64 noundef %17, ptr noundef @.str.6)
  br label %19

19:                                               ; preds = %15
  store i8 1, ptr %4, align 1
  %20 = load i8, ptr %4, align 1
  %21 = trunc i8 %20 to i1
  %22 = zext i1 %21 to i8
  store i8 %22, ptr %4, align 1
  br label %23

23:                                               ; preds = %19
  br label %24

24:                                               ; preds = %23
  store i32 -1, ptr %3, align 4
  br label %70

25:                                               ; No predecessors!
  br label %26

26:                                               ; preds = %25
  br label %27

27:                                               ; preds = %26, %1
  %28 = load ptr, ptr %2, align 8
  %29 = call i32 @H5C__flush_invalidate_cache(ptr noundef %28, i32 noundef 4096)
  %30 = icmp slt i32 %29, 0
  br i1 %30, label %31, label %46

31:                                               ; preds = %27
  br label %32

32:                                               ; preds = %31
  br label %33

33:                                               ; preds = %32
  br label %34

34:                                               ; preds = %33
  %35 = load i64, ptr @H5E_CACHE_g, align 8
  %36 = load i64, ptr @H5E_CANTFLUSH_g, align 8
  %37 = call i32 (ptr, ptr, i32, i64, i64, ptr, ...) @H5E_printf_stack(ptr noundef @.str.1, ptr noundef @__func__.H5C_evict, i32 noundef 576, i64 noundef %35, i64 noundef %36, ptr noundef @.str.10)
  br label %38

38:                                               ; preds = %34
  store i8 1, ptr %4, align 1
  %39 = load i8, ptr %4, align 1
  %40 = trunc i8 %39 to i1
  %41 = zext i1 %40 to i8
  store i8 %41, ptr %4, align 1
  br label %42

42:                                               ; preds = %38
  br label %43

43:                                               ; preds = %42
  store i32 -1, ptr %3, align 4
  br label %70

44:                                               ; No predecessors!
  br label %45

45:                                               ; preds = %44
  br label %46

46:                                               ; preds = %45, %27
  %47 = load ptr, ptr %2, align 8
  %48 = getelementptr inbounds %struct.H5F_t, ptr %47, i32 0, i32 2
  %49 = load ptr, ptr %48, align 8
  %50 = getelementptr inbounds %struct.H5F_shared_t, ptr %49, i32 0, i32 16
  %51 = load ptr, ptr %50, align 8
  %52 = call i32 @H5C_set_slist_enabled(ptr noundef %51, i1 noundef zeroext false, i1 noundef zeroext false)
  %53 = icmp slt i32 %52, 0
  br i1 %53, label %54, label %69

54:                                               ; preds = %46
  br label %55

55:                                               ; preds = %54
  br label %56

56:                                               ; preds = %55
  br label %57

57:                                               ; preds = %56
  %58 = load i64, ptr @H5E_CACHE_g, align 8
  %59 = load i64, ptr @H5E_SYSTEM_g, align 8
  %60 = call i32 (ptr, ptr, i32, i64, i64, ptr, ...) @H5E_printf_stack(ptr noundef @.str.1, ptr noundef @__func__.H5C_evict, i32 noundef 580, i64 noundef %58, i64 noundef %59, ptr noundef @.str.11)
  br label %61

61:                                               ; preds = %57
  store i8 1, ptr %4, align 1
  %62 = load i8, ptr %4, align 1
  %63 = trunc i8 %62 to i1
  %64 = zext i1 %63 to i8
  store i8 %64, ptr %4, align 1
  br label %65

65:                                               ; preds = %61
  br label %66

66:                                               ; preds = %65
  store i32 -1, ptr %3, align 4
  br label %70

67:                                               ; No predecessors!
  br label %68

68:                                               ; preds = %67
  br label %69

69:                                               ; preds = %68, %46
  br label %70

70:                                               ; preds = %69, %66, %43, %24
  %71 = load i32, ptr %3, align 4
  ret i32 %71
}