; Function Attrs: nounwind uwtable
define range(i32 -1, 1) i32 @H5C_evict(ptr noundef %0) local_unnamed_addr #0 {
  %2 = getelementptr inbounds i8, ptr %0, i64 16
  %3 = load ptr, ptr %2, align 8
  %4 = getelementptr inbounds i8, ptr %3, i64 112
  %5 = load ptr, ptr %4, align 8
  %6 = tail call i32 @H5C_set_slist_enabled(ptr noundef %5, i1 noundef zeroext true, i1 noundef zeroext true)
  %7 = icmp slt i32 %6, 0
  br i1 %7, label %8, label %12

8:                                                ; preds = %1
  %9 = load i64, ptr @H5E_CACHE_g, align 8
  %10 = load i64, ptr @H5E_SYSTEM_g, align 8
  %11 = tail call i32 (ptr, ptr, i32, i64, i64, ptr, ...) @H5E_printf_stack(ptr noundef nonnull @.str.1, ptr noundef nonnull @__func__.H5C_evict, i32 noundef 572, i64 noundef %9, i64 noundef %10, ptr noundef nonnull @.str.6) #8
  br label %50

12:                                               ; preds = %1
  %13 = tail call i32 @H5C__flush_invalidate_cache(ptr noundef nonnull %0, i32 noundef 4096) #8
  %14 = icmp slt i32 %13, 0
  br i1 %14, label %15, label %19

15:                                               ; preds = %12
  %16 = load i64, ptr @H5E_CACHE_g, align 8
  %17 = load i64, ptr @H5E_CANTFLUSH_g, align 8
  %18 = tail call i32 (ptr, ptr, i32, i64, i64, ptr, ...) @H5E_printf_stack(ptr noundef nonnull @.str.1, ptr noundef nonnull @__func__.H5C_evict, i32 noundef 576, i64 noundef %16, i64 noundef %17, ptr noundef nonnull @.str.10) #8
  br label %50

19:                                               ; preds = %12
  %20 = load ptr, ptr %2, align 8
  %21 = getelementptr inbounds i8, ptr %20, i64 112
  %22 = load ptr, ptr %21, align 8
  %23 = icmp eq ptr %22, null
  br i1 %23, label %24, label %28

24:                                               ; preds = %19
  %25 = load i64, ptr @H5E_CACHE_g, align 8
  %26 = load i64, ptr @H5E_SYSTEM_g, align 8
  %27 = tail call i32 (ptr, ptr, i32, i64, i64, ptr, ...) @H5E_printf_stack(ptr noundef nonnull @.str.1, ptr noundef nonnull @__func__.H5C_set_slist_enabled, i32 noundef 1079, i64 noundef %25, i64 noundef %26, ptr noundef nonnull @.str.32) #8
  br label %46

28:                                               ; preds = %19
  %29 = getelementptr inbounds i8, ptr %22, i64 524624
  %30 = load i8, ptr %29, align 8
  %31 = trunc i8 %30 to i1
  br i1 %31, label %36, label %32

32:                                               ; preds = %28
  %33 = load i64, ptr @H5E_CACHE_g, align 8
  %34 = load i64, ptr @H5E_SYSTEM_g, align 8
  %35 = tail call i32 (ptr, ptr, i32, i64, i64, ptr, ...) @H5E_printf_stack(ptr noundef nonnull @.str.1, ptr noundef nonnull @__func__.H5C_set_slist_enabled, i32 noundef 1112, i64 noundef %33, i64 noundef %34, ptr noundef nonnull @.str.37) #8
  br label %46

36:                                               ; preds = %28
  %37 = getelementptr inbounds i8, ptr %22, i64 524628
  %38 = load i32, ptr %37, align 4
  %.not.i = icmp eq i32 %38, 0
  br i1 %.not.i, label %39, label %42

39:                                               ; preds = %36
  %40 = getelementptr inbounds i8, ptr %22, i64 524632
  %41 = load i64, ptr %40, align 8
  %.not37.i = icmp eq i64 %41, 0
  br i1 %.not37.i, label %H5C_set_slist_enabled.exit, label %42

42:                                               ; preds = %39, %36
  %43 = load i64, ptr @H5E_CACHE_g, align 8
  %44 = load i64, ptr @H5E_SYSTEM_g, align 8
  %45 = tail call i32 (ptr, ptr, i32, i64, i64, ptr, ...) @H5E_printf_stack(ptr noundef nonnull @.str.1, ptr noundef nonnull @__func__.H5C_set_slist_enabled, i32 noundef 1115, i64 noundef %43, i64 noundef %44, ptr noundef nonnull @.str.35) #8
  br label %46

H5C_set_slist_enabled.exit:                       ; preds = %39
  store i8 0, ptr %29, align 8
  br label %50

46:                                               ; preds = %24, %42, %32
  %47 = load i64, ptr @H5E_CACHE_g, align 8
  %48 = load i64, ptr @H5E_SYSTEM_g, align 8
  %49 = tail call i32 (ptr, ptr, i32, i64, i64, ptr, ...) @H5E_printf_stack(ptr noundef nonnull @.str.1, ptr noundef nonnull @__func__.H5C_evict, i32 noundef 580, i64 noundef %47, i64 noundef %48, ptr noundef nonnull @.str.11) #8
  br label %50

50:                                               ; preds = %H5C_set_slist_enabled.exit, %46, %15, %8
  %.0 = phi i32 [ -1, %8 ], [ -1, %15 ], [ -1, %46 ], [ 0, %H5C_set_slist_enabled.exit ]
  ret i32 %.0
}